; Function Attrs: mustprogress nofree norecurse nosync nounwind willreturn memory(readwrite, inaccessiblemem: none) uwtable
define hidden void @_ZN5zxing6qrcode8DetectorC2ENS_3RefINS_9BitMatrixEEENS2_INS_11UnicomBlockEEE(ptr noundef nonnull writeonly align 8 captures(none) dereferenceable(60) initializes((0, 12), (16, 60)) %0, ptr noundef readonly captures(none) %1, ptr noundef readonly captures(none) %2) unnamed_addr #0 align 2 personality ptr @__gxx_personality_v0 {
  %4 = getelementptr inbounds nuw i8, ptr %0, i64 8
  store i32 0, ptr %4, align 8, !tbaa !3
  store ptr getelementptr inbounds nuw inrange(-16, 24) (i8, ptr @_ZTVN5zxing6qrcode8DetectorE, i64 16), ptr %0, align 8, !tbaa !8
  %5 = getelementptr inbounds nuw i8, ptr %0, i64 16
  store ptr null, ptr %5, align 8, !tbaa !10
  %6 = load ptr, ptr %1, align 8, !tbaa !10
  %.not.i.i = icmp eq ptr %6, null
  br i1 %.not.i.i, label %11, label %7

7:                                                ; preds = %3
  %8 = getelementptr inbounds nuw i8, ptr %6, i64 8
  %9 = load i32, ptr %8, align 8, !tbaa !3
  %10 = add i32 %9, 1
  store i32 %10, ptr %8, align 8, !tbaa !3
  br label %11

11:                                               ; preds = %7, %3
  store ptr %6, ptr %5, align 8, !tbaa !10
  %12 = getelementptr inbounds nuw i8, ptr %0, i64 24
  store ptr null, ptr %12, align 8, !tbaa !14
  %13 = load ptr, ptr %2, align 8, !tbaa !14
  %.not.i.i4 = icmp eq ptr %13, null
  br i1 %.not.i.i4, label %_ZNSt6vectorIN5zxing3RefINS0_6qrcode13PatternResultEEESaIS4_EE5clearEv.exit, label %14

14:                                               ; preds = %11
  %15 = getelementptr inbounds nuw i8, ptr %13, i64 8
  %16 = load i32, ptr %15, align 8, !tbaa !3
  %17 = add i32 %16, 1
  store i32 %17, ptr %15, align 8, !tbaa !3
  br label %_ZNSt6vectorIN5zxing3RefINS0_6qrcode13PatternResultEEESaIS4_EE5clearEv.exit

_ZNSt6vectorIN5zxing3RefINS0_6qrcode13PatternResultEEESaIS4_EE5clearEv.exit: ; preds = %11, %14
  store ptr %13, ptr %12, align 8, !tbaa !14
  %18 = getelementptr inbounds nuw i8, ptr %0, i64 32
  tail call void @llvm.memset.p0.i64(ptr noundef nonnull align 8 dereferenceable(24) %18, i8 0, i64 24, i1 false)
  %19 = getelementptr inbounds nuw i8, ptr %0, i64 56
  store i32 10, ptr %19, align 8, !tbaa !17
  ret void
}